; Function Attrs: mustprogress nounwind uwtable
define hidden void @_ZN4cvc58internal6theory4sets10TheorySetsD0Ev(ptr noundef nonnull align 8 dereferenceable(2336) %this) unnamed_addr #7 align 2 personality ptr @__gxx_personality_v0 {
entry:
  store ptr getelementptr inbounds ({ [36 x ptr] }, ptr @_ZTVN4cvc58internal6theory4sets10TheorySetsE, i64 0, i32 0, i64 2), ptr %this, align 8
  %d_internal.i = getelementptr inbounds i8, ptr %this, i64 2304
  %0 = load ptr, ptr %d_internal.i, align 8
  %cmp.not.i.i = icmp eq ptr %0, null
  br i1 %cmp.not.i.i, label %_ZN4cvc58internal6theory4sets10TheorySetsD2Ev.exit, label %_ZNKSt14default_deleteIN4cvc58internal6theory4sets17TheorySetsPrivateEEclEPS4_.exit.i.i

_ZNKSt14default_deleteIN4cvc58internal6theory4sets17TheorySetsPrivateEEclEPS4_.exit.i.i: ; preds = %entry
  %vtable.i.i.i = load ptr, ptr %0, align 8
  %vfn.i.i.i = getelementptr inbounds i8, ptr %vtable.i.i.i, i64 8
  %1 = load ptr, ptr %vfn.i.i.i, align 8
  tail call void %1(ptr noundef nonnull align 8 dereferenceable(752) %0) #17
  br label %_ZN4cvc58internal6theory4sets10TheorySetsD2Ev.exit

_ZN4cvc58internal6theory4sets10TheorySetsD2Ev.exit: ; preds = %entry, %_ZNKSt14default_deleteIN4cvc58internal6theory4sets17TheorySetsPrivateEEclEPS4_.exit.i.i
  store ptr null, ptr %d_internal.i, align 8
  %d_im.i = getelementptr inbounds i8, ptr %this, i64 1888
  tail call void @_ZN4cvc58internal6theory4sets16InferenceManagerD2Ev(ptr noundef nonnull align 8 dereferenceable(400) %d_im.i) #17
  %d_state.i = getelementptr inbounds i8, ptr %this, i64 520
  tail call void @_ZN4cvc58internal6theory4sets11SolverStateD2Ev(ptr noundef nonnull align 8 dereferenceable(1368) %d_state.i) #17
  %d_skCache.i = getelementptr inbounds i8, ptr %this, i64 408
  tail call void @_ZN4cvc58internal6theory4sets11SkolemCacheD2Ev(ptr noundef nonnull align 8 dereferenceable(112) %d_skCache.i) #17
  tail call void @_ZN4cvc58internal6theory6TheoryD2Ev(ptr noundef nonnull align 8 dereferenceable(408) %this) #17
  tail call void @_ZdlPv(ptr noundef nonnull %this) #19
  ret void
}